#include <math.h>
#include <stdio.h>
#include <stdlib.h>
#include <string.h>

void inv(int x[],int n)
{
     int temp,i,j,m=(n-1)/2;
     for(i=0;i<=m;i++)
     {
                     j=n-1-i;
                     temp=x[i];x[i]=x[j];x[j]=temp;
                     }
                     return;
                     }
int main()
{
    int i,n,a[100];
    scanf("%d",&n);
    for(i=0;i<n;i++)
    scanf("%d",&a[i]);
    inv(a,n);
    for(i=0;i<n-1;i++)
    printf("%d ",a[i]);
    
    printf("%d",a[n-1]);
     return 0;
}  
    
    
    
