; ModuleID = 'source-C-CXX/46/1722.c'
source_filename = "source-C-CXX/46/1722.c"
target datalayout = "e-m:e-p270:32:32-p271:32:32-p272:64:64-i64:64-f80:128-n8:16:32:64-S128"
target triple = "x86_64-pc-linux-gnu"

@.str = private unnamed_addr constant [3 x i8] c"%d\00", align 1
@.str.1 = private unnamed_addr constant [4 x i8] c"%d \00", align 1

; Function Attrs: nofree norecurse nosync nounwind sspstrong uwtable
define dso_local void @inv(i32* nocapture %0, i32 %1) local_unnamed_addr #0 {
  %3 = add nsw i32 %1, -1
  %4 = icmp slt i32 %1, 0
  br i1 %4, label %45, label %5

5:                                                ; preds = %2
  %6 = sdiv i32 %3, 2
  %7 = add nuw nsw i32 %6, 1
  %8 = zext i32 %7 to i64
  %9 = and i64 %8, 1
  %10 = icmp ult i32 %1, 3
  br i1 %10, label %34, label %11

11:                                               ; preds = %5
  %12 = and i64 %8, 4294967294
  br label %13

13:                                               ; preds = %13, %11
  %14 = phi i64 [ 0, %11 ], [ %31, %13 ]
  %15 = phi i64 [ %12, %11 ], [ %32, %13 ]
  %16 = trunc i64 %14 to i32
  %17 = sub nsw i32 %3, %16
  %18 = getelementptr inbounds i32, i32* %0, i64 %14
  %19 = load i32, i32* %18, align 4, !tbaa !5
  %20 = sext i32 %17 to i64
  %21 = getelementptr inbounds i32, i32* %0, i64 %20
  %22 = load i32, i32* %21, align 4, !tbaa !5
  store i32 %22, i32* %18, align 4, !tbaa !5
  store i32 %19, i32* %21, align 4, !tbaa !5
  %23 = or i64 %14, 1
  %24 = trunc i64 %23 to i32
  %25 = sub nsw i32 %3, %24
  %26 = getelementptr inbounds i32, i32* %0, i64 %23
  %27 = load i32, i32* %26, align 4, !tbaa !5
  %28 = sext i32 %25 to i64
  %29 = getelementptr inbounds i32, i32* %0, i64 %28
  %30 = load i32, i32* %29, align 4, !tbaa !5
  store i32 %30, i32* %26, align 4, !tbaa !5
  store i32 %27, i32* %29, align 4, !tbaa !5
  %31 = add nuw nsw i64 %14, 2
  %32 = add i64 %15, -2
  %33 = icmp eq i64 %32, 0
  br i1 %33, label %34, label %13, !llvm.loop !9

34:                                               ; preds = %13, %5
  %35 = phi i64 [ 0, %5 ], [ %31, %13 ]
  %36 = icmp eq i64 %9, 0
  br i1 %36, label %45, label %37

37:                                               ; preds = %34
  %38 = trunc i64 %35 to i32
  %39 = sub nsw i32 %3, %38
  %40 = getelementptr inbounds i32, i32* %0, i64 %35
  %41 = load i32, i32* %40, align 4, !tbaa !5
  %42 = sext i32 %39 to i64
  %43 = getelementptr inbounds i32, i32* %0, i64 %42
  %44 = load i32, i32* %43, align 4, !tbaa !5
  store i32 %44, i32* %40, align 4, !tbaa !5
  store i32 %41, i32* %43, align 4, !tbaa !5
  br label %45

45:                                               ; preds = %37, %34, %2
  ret void
}

; Function Attrs: argmemonly mustprogress nofree nosync nounwind willreturn
declare void @llvm.lifetime.start.p0i8(i64 immarg, i8* nocapture) #1

; Function Attrs: argmemonly mustprogress nofree nosync nounwind willreturn
declare void @llvm.lifetime.end.p0i8(i64 immarg, i8* nocapture) #1

; Function Attrs: nofree nounwind sspstrong uwtable
define dso_local i32 @main() local_unnamed_addr #2 {
  %1 = alloca i32, align 4
  %2 = alloca [100 x i32], align 16
  %3 = bitcast i32* %1 to i8*
  call void @llvm.lifetime.start.p0i8(i64 4, i8* nonnull %3) #4
  %4 = bitcast [100 x i32]* %2 to i8*
  call void @llvm.lifetime.start.p0i8(i64 400, i8* nonnull %4) #4
  %5 = call i32 (i8*, ...) @__isoc99_scanf(i8* getelementptr inbounds ([3 x i8], [3 x i8]* @.str, i64 0, i64 0), i32* nonnull %1)
  %6 = load i32, i32* %1, align 4, !tbaa !5
  %7 = icmp sgt i32 %6, 0
  br i1 %7, label %8, label %16

8:                                                ; preds = %0, %8
  %9 = phi i64 [ %12, %8 ], [ 0, %0 ]
  %10 = getelementptr inbounds [100 x i32], [100 x i32]* %2, i64 0, i64 %9
  %11 = call i32 (i8*, ...) @__isoc99_scanf(i8* getelementptr inbounds ([3 x i8], [3 x i8]* @.str, i64 0, i64 0), i32* nonnull %10)
  %12 = add nuw nsw i64 %9, 1
  %13 = load i32, i32* %1, align 4, !tbaa !5
  %14 = sext i32 %13 to i64
  %15 = icmp slt i64 %12, %14
  br i1 %15, label %8, label %16, !llvm.loop !11

16:                                               ; preds = %8, %0
  %17 = phi i32 [ %6, %0 ], [ %13, %8 ]
  %18 = add nsw i32 %17, -1
  %19 = icmp slt i32 %17, 0
  br i1 %19, label %62, label %20

20:                                               ; preds = %16
  %21 = sdiv i32 %18, 2
  %22 = add nuw nsw i32 %21, 1
  %23 = zext i32 %22 to i64
  %24 = and i64 %23, 1
  %25 = icmp ult i32 %17, 3
  br i1 %25, label %49, label %26

26:                                               ; preds = %20
  %27 = and i64 %23, 4294967294
  br label %28

28:                                               ; preds = %28, %26
  %29 = phi i64 [ 0, %26 ], [ %46, %28 ]
  %30 = phi i64 [ %27, %26 ], [ %47, %28 ]
  %31 = trunc i64 %29 to i32
  %32 = sub nsw i32 %18, %31
  %33 = getelementptr inbounds [100 x i32], [100 x i32]* %2, i64 0, i64 %29
  %34 = load i32, i32* %33, align 8, !tbaa !5
  %35 = sext i32 %32 to i64
  %36 = getelementptr inbounds [100 x i32], [100 x i32]* %2, i64 0, i64 %35
  %37 = load i32, i32* %36, align 4, !tbaa !5
  store i32 %37, i32* %33, align 8, !tbaa !5
  store i32 %34, i32* %36, align 4, !tbaa !5
  %38 = or i64 %29, 1
  %39 = trunc i64 %38 to i32
  %40 = sub nsw i32 %18, %39
  %41 = getelementptr inbounds [100 x i32], [100 x i32]* %2, i64 0, i64 %38
  %42 = load i32, i32* %41, align 4, !tbaa !5
  %43 = sext i32 %40 to i64
  %44 = getelementptr inbounds [100 x i32], [100 x i32]* %2, i64 0, i64 %43
  %45 = load i32, i32* %44, align 4, !tbaa !5
  store i32 %45, i32* %41, align 4, !tbaa !5
  store i32 %42, i32* %44, align 4, !tbaa !5
  %46 = add nuw nsw i64 %29, 2
  %47 = add i64 %30, -2
  %48 = icmp eq i64 %47, 0
  br i1 %48, label %49, label %28, !llvm.loop !9

49:                                               ; preds = %28, %20
  %50 = phi i64 [ 0, %20 ], [ %46, %28 ]
  %51 = icmp eq i64 %24, 0
  br i1 %51, label %60, label %52

52:                                               ; preds = %49
  %53 = trunc i64 %50 to i32
  %54 = sub nsw i32 %18, %53
  %55 = getelementptr inbounds [100 x i32], [100 x i32]* %2, i64 0, i64 %50
  %56 = load i32, i32* %55, align 4, !tbaa !5
  %57 = sext i32 %54 to i64
  %58 = getelementptr inbounds [100 x i32], [100 x i32]* %2, i64 0, i64 %57
  %59 = load i32, i32* %58, align 4, !tbaa !5
  store i32 %59, i32* %55, align 4, !tbaa !5
  store i32 %56, i32* %58, align 4, !tbaa !5
  br label %60

60:                                               ; preds = %49, %52
  %61 = icmp sgt i32 %17, 1
  br i1 %61, label %64, label %62

62:                                               ; preds = %16, %60
  %63 = sext i32 %18 to i64
  br label %74

64:                                               ; preds = %60, %64
  %65 = phi i64 [ %69, %64 ], [ 0, %60 ]
  %66 = getelementptr inbounds [100 x i32], [100 x i32]* %2, i64 0, i64 %65
  %67 = load i32, i32* %66, align 4, !tbaa !5
  %68 = call i32 (i8*, ...) @printf(i8* nonnull dereferenceable(1) getelementptr inbounds ([4 x i8], [4 x i8]* @.str.1, i64 0, i64 0), i32 %67)
  %69 = add nuw nsw i64 %65, 1
  %70 = load i32, i32* %1, align 4, !tbaa !5
  %71 = add nsw i32 %70, -1
  %72 = sext i32 %71 to i64
  %73 = icmp slt i64 %69, %72
  br i1 %73, label %64, label %74, !llvm.loop !12

74:                                               ; preds = %64, %62
  %75 = phi i64 [ %63, %62 ], [ %72, %64 ]
  %76 = getelementptr inbounds [100 x i32], [100 x i32]* %2, i64 0, i64 %75
  %77 = load i32, i32* %76, align 4, !tbaa !5
  %78 = call i32 (i8*, ...) @printf(i8* nonnull dereferenceable(1) getelementptr inbounds ([3 x i8], [3 x i8]* @.str, i64 0, i64 0), i32 %77)
  call void @llvm.lifetime.end.p0i8(i64 400, i8* nonnull %4) #4
  call void @llvm.lifetime.end.p0i8(i64 4, i8* nonnull %3) #4
  ret i32 0
}

; Function Attrs: nofree nounwind
declare noundef i32 @__isoc99_scanf(i8* nocapture noundef readonly, ...) local_unnamed_addr #3

; Function Attrs: nofree nounwind
declare noundef i32 @printf(i8* nocapture noundef readonly, ...) local_unnamed_addr #3


!llvm.module.flags = !{!0, !1, !2, !3}
!llvm.ident = !{!4}

!0 = !{i32 1, !"wchar_size", i32 4}
!1 = !{i32 7, !"PIC Level", i32 2}
!2 = !{i32 7, !"PIE Level", i32 2}
!3 = !{i32 7, !"uwtable", i32 1}
!4 = !{!"clang version 13.0.0"}
!5 = !{!6, !6, i64 0}
!6 = !{!"int", !7, i64 0}
!7 = !{!"omnipotent char", !8, i64 0}
!8 = !{!"Simple C/C++ TBAA"}
!9 = distinct !{!9, !10}
!10 = !{!"llvm.loop.mustprogress"}
!11 = distinct !{!11, !10}
!12 = distinct !{!12, !10}
